; Function Attrs: mustprogress nounwind uwtable
define dso_local noundef ptr @_ZN4llvm9MDBuilder25createRTTIPointerPrologueEPNS_8ConstantES2_(ptr nocapture noundef nonnull readonly align 8 dereferenceable(8) %0, ptr noundef %1, ptr noundef %2) local_unnamed_addr #0 align 2 {
  %4 = alloca %"class.llvm::SmallVector", align 8
  %5 = getelementptr inbounds i8, ptr %4, i64 16
  call void @_ZN4llvm15SmallVectorBaseIjEC2EPvm(ptr noundef nonnull align 8 dereferenceable(16) %4, ptr noundef nonnull %5, i64 noundef 4) #8
  %6 = call noundef ptr @_ZN4llvm15ValueAsMetadata3getEPNS_5ValueE(ptr noundef %1) #8
  %7 = call noundef i64 @_ZNK4llvm15SmallVectorBaseIjE4sizeEv(ptr noundef nonnull align 8 dereferenceable(16) %4) #8
  %8 = add i64 %7, 1
  %9 = call noundef i64 @_ZNK4llvm15SmallVectorBaseIjE8capacityEv(ptr noundef nonnull align 8 dereferenceable(16) %4) #8
  %.not.i.i.i = icmp ugt i64 %8, %9
  br i1 %.not.i.i.i, label %10, label %_ZN4llvm23SmallVectorTemplateBaseIPNS_8MetadataELb1EE9push_backES2_.exit

10:                                               ; preds = %3
  call void @_ZN4llvm15SmallVectorBaseIjE8grow_podEPvmm(ptr noundef nonnull align 8 dereferenceable(16) %4, ptr noundef nonnull %5, i64 noundef %8, i64 noundef 8) #8
  br label %_ZN4llvm23SmallVectorTemplateBaseIPNS_8MetadataELb1EE9push_backES2_.exit

_ZN4llvm23SmallVectorTemplateBaseIPNS_8MetadataELb1EE9push_backES2_.exit: ; preds = %3, %10
  %11 = load ptr, ptr %4, align 8
  %12 = call noundef i64 @_ZNK4llvm15SmallVectorBaseIjE4sizeEv(ptr noundef nonnull align 8 dereferenceable(16) %4) #8
  %13 = getelementptr inbounds ptr, ptr %11, i64 %12
  %14 = ptrtoint ptr %6 to i64
  store i64 %14, ptr %13, align 1
  %15 = call noundef i64 @_ZNK4llvm15SmallVectorBaseIjE4sizeEv(ptr noundef nonnull align 8 dereferenceable(16) %4) #8
  %16 = add i64 %15, 1
  call void @_ZN4llvm15SmallVectorBaseIjE8set_sizeEm(ptr noundef nonnull align 8 dereferenceable(16) %4, i64 noundef %16) #8
  %17 = call noundef ptr @_ZN4llvm15ValueAsMetadata3getEPNS_5ValueE(ptr noundef %2) #8
  %18 = call noundef i64 @_ZNK4llvm15SmallVectorBaseIjE4sizeEv(ptr noundef nonnull align 8 dereferenceable(16) %4) #8
  %19 = add i64 %18, 1
  %20 = call noundef i64 @_ZNK4llvm15SmallVectorBaseIjE8capacityEv(ptr noundef nonnull align 8 dereferenceable(16) %4) #8
  %.not.i.i.i3 = icmp ugt i64 %19, %20
  br i1 %.not.i.i.i3, label %21, label %_ZN4llvm23SmallVectorTemplateBaseIPNS_8MetadataELb1EE9push_backES2_.exit4

21:                                               ; preds = %_ZN4llvm23SmallVectorTemplateBaseIPNS_8MetadataELb1EE9push_backES2_.exit
  call void @_ZN4llvm15SmallVectorBaseIjE8grow_podEPvmm(ptr noundef nonnull align 8 dereferenceable(16) %4, ptr noundef nonnull %5, i64 noundef %19, i64 noundef 8) #8
  br label %_ZN4llvm23SmallVectorTemplateBaseIPNS_8MetadataELb1EE9push_backES2_.exit4

_ZN4llvm23SmallVectorTemplateBaseIPNS_8MetadataELb1EE9push_backES2_.exit4: ; preds = %_ZN4llvm23SmallVectorTemplateBaseIPNS_8MetadataELb1EE9push_backES2_.exit, %21
  %22 = load ptr, ptr %4, align 8
  %23 = call noundef i64 @_ZNK4llvm15SmallVectorBaseIjE4sizeEv(ptr noundef nonnull align 8 dereferenceable(16) %4) #8
  %24 = getelementptr inbounds ptr, ptr %22, i64 %23
  %25 = ptrtoint ptr %17 to i64
  store i64 %25, ptr %24, align 1
  %26 = call noundef i64 @_ZNK4llvm15SmallVectorBaseIjE4sizeEv(ptr noundef nonnull align 8 dereferenceable(16) %4) #8
  %27 = add i64 %26, 1
  call void @_ZN4llvm15SmallVectorBaseIjE8set_sizeEm(ptr noundef nonnull align 8 dereferenceable(16) %4, i64 noundef %27) #8
  %28 = load ptr, ptr %0, align 8
  %29 = load ptr, ptr %4, align 8
  %30 = call noundef i64 @_ZNK4llvm15SmallVectorBaseIjE4sizeEv(ptr noundef nonnull align 8 dereferenceable(16) %4) #8
  %31 = call noundef ptr @_ZN4llvm7MDTuple7getImplERNS_11LLVMContextENS_8ArrayRefIPNS_8MetadataEEENS4_11StorageTypeEb(ptr noundef nonnull align 8 dereferenceable(8) %28, ptr %29, i64 %30, i32 noundef 0, i1 noundef zeroext true) #8
  %32 = call noundef i64 @_ZNK4llvm15SmallVectorBaseIjE4sizeEv(ptr noundef nonnull align 8 dereferenceable(16) %4) #8
  %33 = load ptr, ptr %4, align 8
  %34 = icmp eq ptr %33, %5
  br i1 %34, label %_ZN4llvm11SmallVectorIPNS_8MetadataELj4EED2Ev.exit, label %35

35:                                               ; preds = %_ZN4llvm23SmallVectorTemplateBaseIPNS_8MetadataELb1EE9push_backES2_.exit4
  call void @free(ptr noundef %33) #8
  br label %_ZN4llvm11SmallVectorIPNS_8MetadataELj4EED2Ev.exit

_ZN4llvm11SmallVectorIPNS_8MetadataELj4EED2Ev.exit: ; preds = %_ZN4llvm23SmallVectorTemplateBaseIPNS_8MetadataELb1EE9push_backES2_.exit4, %35
  ret ptr %31
}